; Function Attrs: mustprogress uwtable
define noundef zeroext i1 @_ZNK32MLRenderingPerVertexNormalAction23isVisibleConditionValidEP9MeshModel(ptr nocapture noundef nonnull readnone align 8 dereferenceable(20) %0, ptr noundef %1) unnamed_addr #9 align 2 {
  %3 = icmp eq ptr %1, null
  br i1 %3, label %6, label %4

4:                                                ; preds = %2
  %5 = tail call noundef zeroext i1 @_ZNK9MeshModel11hasDataMaskEi(ptr noundef nonnull align 8 dereferenceable(1288) %1, i32 noundef 2)
  br label %6

6:                                                ; preds = %2, %4
  %.0 = phi i1 [ %5, %4 ], [ false, %2 ]
  ret i1 %.0
}